target datalayout = "e-m:e-p270:32:32-p271:32:32-p272:64:64-i64:64-i128:128-f80:128-n8:16:32:64-S128"
target triple = "x86_64-pc-linux-gnu"

%struct.lxb_html_tree = type { ptr, ptr, ptr, ptr, ptr, ptr, ptr, %struct.lxb_html_tree_pending_table_t, ptr, i8, i8, i8, i8, i8, i8, ptr, ptr, ptr, i32, i64 }
%struct.lxb_html_tree_pending_table_t = type { ptr, i8 }
%struct.lexbor_array_t = type { ptr, i64, i64 }
%struct.lxb_dom_node = type { %struct.lxb_dom_event_target, i64, i64, i64, ptr, ptr, ptr, ptr, ptr, ptr, ptr, i32, i64 }
%struct.lxb_dom_event_target = type { ptr }

; Function Attrs: nounwind uwtable
define hidden ptr @lxb_html_tree_open_elements_find(ptr noundef %0, i64 noundef %1, i64 noundef %2, ptr noundef %3) #0 {
  %5 = alloca ptr, align 8
  %6 = alloca ptr, align 8
  %7 = alloca i64, align 8
  %8 = alloca i64, align 8
  %9 = alloca ptr, align 8
  %10 = alloca ptr, align 8
  %11 = alloca ptr, align 8
  %12 = alloca i64, align 8
  store ptr %0, ptr %6, align 8
  store i64 %1, ptr %7, align 8
  store i64 %2, ptr %8, align 8
  store ptr %3, ptr %9, align 8
  %13 = load ptr, ptr %6, align 8
  %14 = getelementptr inbounds %struct.lxb_html_tree, ptr %13, i32 0, i32 4
  %15 = load ptr, ptr %14, align 8
  %16 = getelementptr inbounds %struct.lexbor_array_t, ptr %15, i32 0, i32 0
  %17 = load ptr, ptr %16, align 8
  store ptr %17, ptr %10, align 8
  store i64 0, ptr %12, align 8
  br label %18

18:                                               ; preds = %51, %4
  %19 = load i64, ptr %12, align 8
  %20 = load ptr, ptr %6, align 8
  %21 = getelementptr inbounds %struct.lxb_html_tree, ptr %20, i32 0, i32 4
  %22 = load ptr, ptr %21, align 8
  %23 = getelementptr inbounds %struct.lexbor_array_t, ptr %22, i32 0, i32 2
  %24 = load i64, ptr %23, align 8
  %25 = icmp ult i64 %19, %24
  br i1 %25, label %26, label %54

26:                                               ; preds = %18
  %27 = load ptr, ptr %10, align 8
  %28 = load i64, ptr %12, align 8
  %29 = getelementptr inbounds ptr, ptr %27, i64 %28
  %30 = load ptr, ptr %29, align 8
  store ptr %30, ptr %11, align 8
  %31 = load ptr, ptr %11, align 8
  %32 = getelementptr inbounds %struct.lxb_dom_node, ptr %31, i32 0, i32 1
  %33 = load i64, ptr %32, align 8
  %34 = load i64, ptr %7, align 8
  %35 = icmp eq i64 %33, %34
  br i1 %35, label %36, label %50

36:                                               ; preds = %26
  %37 = load ptr, ptr %11, align 8
  %38 = getelementptr inbounds %struct.lxb_dom_node, ptr %37, i32 0, i32 3
  %39 = load i64, ptr %38, align 8
  %40 = load i64, ptr %8, align 8
  %41 = icmp eq i64 %39, %40
  br i1 %41, label %42, label %50

42:                                               ; preds = %36
  %43 = load ptr, ptr %9, align 8
  %44 = icmp ne ptr %43, null
  br i1 %44, label %45, label %48

45:                                               ; preds = %42
  %46 = load i64, ptr %12, align 8
  %47 = load ptr, ptr %9, align 8
  store i64 %46, ptr %47, align 8
  br label %48

48:                                               ; preds = %45, %42
  %49 = load ptr, ptr %11, align 8
  store ptr %49, ptr %5, align 8
  br label %60

50:                                               ; preds = %36, %26
  br label %51

51:                                               ; preds = %50
  %52 = load i64, ptr %12, align 8
  %53 = add i64 %52, 1
  store i64 %53, ptr %12, align 8
  br label %18

54:                                               ; preds = %18
  %55 = load ptr, ptr %9, align 8
  %56 = icmp ne ptr %55, null
  br i1 %56, label %57, label %59

57:                                               ; preds = %54
  %58 = load ptr, ptr %9, align 8
  store i64 0, ptr %58, align 8
  br label %59

59:                                               ; preds = %57, %54
  store ptr null, ptr %5, align 8
  br label %60

60:                                               ; preds = %59, %48
  %61 = load ptr, ptr %5, align 8
  ret ptr %61
}