; Function Attrs: nofree norecurse nosync nounwind memory(read, argmem: readwrite, inaccessiblemem: none) uwtable
define hidden ptr @lxb_html_tree_open_elements_find(ptr nocapture noundef readonly %0, i64 noundef %1, i64 noundef %2, ptr noundef writeonly %3) local_unnamed_addr #3 {
  %5 = getelementptr inbounds i8, ptr %0, i64 32
  %6 = load ptr, ptr %5, align 8
  %7 = load ptr, ptr %6, align 8
  %8 = getelementptr inbounds i8, ptr %6, i64 16
  %9 = load i64, ptr %8, align 8
  %.not21 = icmp eq i64 %9, 0
  br i1 %.not21, label %._crit_edge, label %.lr.ph

.lr.ph:                                           ; preds = %4, %20
  %.020 = phi i64 [ %21, %20 ], [ 0, %4 ]
  %10 = getelementptr inbounds ptr, ptr %7, i64 %.020
  %11 = load ptr, ptr %10, align 8
  %12 = getelementptr inbounds i8, ptr %11, i64 8
  %13 = load i64, ptr %12, align 8
  %14 = icmp eq i64 %13, %1
  br i1 %14, label %15, label %20

15:                                               ; preds = %.lr.ph
  %16 = getelementptr inbounds i8, ptr %11, i64 24
  %17 = load i64, ptr %16, align 8
  %18 = icmp eq i64 %17, %2
  br i1 %18, label %19, label %20

19:                                               ; preds = %15
  %.not18 = icmp eq ptr %3, null
  br i1 %.not18, label %22, label %.sink.split

20:                                               ; preds = %.lr.ph, %15
  %21 = add nuw i64 %.020, 1
  %exitcond.not = icmp eq i64 %21, %9
  br i1 %exitcond.not, label %._crit_edge, label %.lr.ph

._crit_edge:                                      ; preds = %20, %4
  %.not = icmp eq ptr %3, null
  br i1 %.not, label %22, label %.sink.split

.sink.split:                                      ; preds = %._crit_edge, %19
  %.sink = phi i64 [ %.020, %19 ], [ 0, %._crit_edge ]
  %.016.ph = phi ptr [ %11, %19 ], [ null, %._crit_edge ]
  store i64 %.sink, ptr %3, align 8
  br label %22

22:                                               ; preds = %.sink.split, %._crit_edge, %19
  %.016 = phi ptr [ %11, %19 ], [ null, %._crit_edge ], [ %.016.ph, %.sink.split ]
  ret ptr %.016
}